target datalayout = "e-m:e-p270:32:32-p271:32:32-p272:64:64-i64:64-i128:128-f80:128-n8:16:32:64-S128"
target triple = "x86_64-pc-linux-gnu"

%struct._structmodulestate = type { ptr, ptr, ptr, ptr }
%struct.Py_complex = type { double, double }

@.str.57 = private unnamed_addr constant [35 x i8] c"required argument is not a complex\00", align 1

; Function Attrs: nounwind uwtable
define internal i32 @np_float_complex(ptr noundef %0, ptr noundef %1, ptr noundef %2, ptr noundef %3) #0 {
  %5 = alloca i32, align 4
  %6 = alloca ptr, align 8
  %7 = alloca ptr, align 8
  %8 = alloca ptr, align 8
  %9 = alloca ptr, align 8
  %10 = alloca %struct.Py_complex, align 8
  %11 = alloca { float, float }, align 4
  %12 = alloca i32, align 4
  store ptr %0, ptr %6, align 8, !tbaa !8
  store ptr %1, ptr %7, align 8, !tbaa !43
  store ptr %2, ptr %8, align 8, !tbaa !3
  store ptr %3, ptr %9, align 8, !tbaa !49
  call void @llvm.lifetime.start.p0(i64 16, ptr %10) #8
  %13 = load ptr, ptr %8, align 8, !tbaa !3
  %14 = call { double, double } @PyComplex_AsCComplex(ptr noundef %13)
  %15 = getelementptr inbounds nuw { double, double }, ptr %10, i32 0, i32 0
  %16 = extractvalue { double, double } %14, 0
  store double %16, ptr %15, align 8
  %17 = getelementptr inbounds nuw { double, double }, ptr %10, i32 0, i32 1
  %18 = extractvalue { double, double } %14, 1
  store double %18, ptr %17, align 8
  call void @llvm.lifetime.start.p0(i64 8, ptr %11) #8
  %19 = getelementptr inbounds nuw %struct.Py_complex, ptr %10, i32 0, i32 0
  %20 = load double, ptr %19, align 8, !tbaa !101
  %21 = fptrunc double %20 to float
  %22 = getelementptr inbounds nuw %struct.Py_complex, ptr %10, i32 0, i32 1
  %23 = load double, ptr %22, align 8, !tbaa !103
  %24 = fptrunc double %23 to float
  %25 = getelementptr inbounds nuw { float, float }, ptr %11, i32 0, i32 0
  %26 = getelementptr inbounds nuw { float, float }, ptr %11, i32 0, i32 1
  store float %21, ptr %25, align 4
  store float %24, ptr %26, align 4
  %27 = getelementptr inbounds nuw %struct.Py_complex, ptr %10, i32 0, i32 0
  %28 = load double, ptr %27, align 8, !tbaa !101
  %29 = fcmp oeq double %28, -1.000000e+00
  br i1 %29, label %30, label %37

30:                                               ; preds = %4
  %31 = call ptr @PyErr_Occurred()
  %32 = icmp ne ptr %31, null
  br i1 %32, label %33, label %37

33:                                               ; preds = %30
  %34 = load ptr, ptr %6, align 8, !tbaa !8
  %35 = getelementptr inbounds nuw %struct._structmodulestate, ptr %34, i32 0, i32 3
  %36 = load ptr, ptr %35, align 8, !tbaa !15
  call void @PyErr_SetString(ptr noundef %36, ptr noundef @.str.57)
  store i32 -1, ptr %5, align 4
  store i32 1, ptr %12, align 4
  br label %39

37:                                               ; preds = %30, %4
  %38 = load ptr, ptr %7, align 8, !tbaa !43
  call void @llvm.memcpy.p0.p0.i64(ptr align 1 %38, ptr align 4 %11, i64 8, i1 false)
  store i32 0, ptr %5, align 4
  store i32 1, ptr %12, align 4
  br label %39

39:                                               ; preds = %37, %33
  call void @llvm.lifetime.end.p0(i64 8, ptr %11) #8
  call void @llvm.lifetime.end.p0(i64 16, ptr %10) #8
  %40 = load i32, ptr %5, align 4
  ret i32 %40
}