; Function Attrs: nounwind uwtable
define internal range(i32 -1, 1) i32 @np_float_complex(ptr noundef readonly captures(none) %0, ptr noundef writeonly captures(none) %1, ptr noundef %2, ptr readnone captures(none) %3) #0 {
  %5 = tail call { double, double } @PyComplex_AsCComplex(ptr noundef %2) #7
  %6 = extractvalue { double, double } %5, 0
  %7 = extractvalue { double, double } %5, 1
  %8 = fptrunc double %6 to float
  %9 = fptrunc double %7 to float
  %10 = fcmp oeq double %6, -1.000000e+00
  br i1 %10, label %11, label %16

11:                                               ; preds = %4
  %12 = tail call ptr @PyErr_Occurred() #7
  %.not = icmp eq ptr %12, null
  br i1 %.not, label %16, label %13

13:                                               ; preds = %11
  %14 = getelementptr inbounds nuw i8, ptr %0, i64 24
  %15 = load ptr, ptr %14, align 8, !tbaa !16
  tail call void @PyErr_SetString(ptr noundef %15, ptr noundef nonnull @.str.57) #7
  br label %17

16:                                               ; preds = %11, %4
  store float %8, ptr %1, align 1
  %.sroa.4.0..sroa_idx = getelementptr inbounds nuw i8, ptr %1, i64 4
  store float %9, ptr %.sroa.4.0..sroa_idx, align 1
  br label %17

17:                                               ; preds = %16, %13
  %.0 = phi i32 [ -1, %13 ], [ 0, %16 ]
  ret i32 %.0
}